; Function Attrs: mustprogress uwtable
define internal noundef ptr @"_ZZN4pkpy12add_module_cEPNS_2VMEEN4$_808__invokeES1_NS_8ArgsViewE"(ptr noundef %0, ptr nocapture readonly %1, ptr nocapture readnone %2) #3 align 2 {
  %4 = alloca i64, align 8
  %5 = load ptr, ptr %1, align 8
  %6 = getelementptr inbounds i8, ptr %5, i64 24
  %7 = load ptr, ptr %6, align 8
  call void @llvm.lifetime.start.p0(i64 8, ptr nonnull %4)
  %8 = load i64, ptr %7, align 8
  store i64 %8, ptr %4, align 8
  %or.cond.i.i = icmp ult i64 %8, 1152921504606846976
  br i1 %or.cond.i.i, label %9, label %13

9:                                                ; preds = %3
  %10 = shl nuw nsw i64 %8, 2
  %11 = or disjoint i64 %10, 2
  %12 = inttoptr i64 %11 to ptr
  br label %"_ZZN4pkpy12add_module_cEPNS_2VMEENK4$_80clES1_NS_8ArgsViewE.exit"

13:                                               ; preds = %3
  %14 = getelementptr inbounds i8, ptr %0, i64 16
  %15 = call noundef ptr @_ZN4pkpy11ManagedHeap5gcnewIlJRlEEEPNS_8PyObjectENS_4TypeEDpOT0_(ptr noundef nonnull align 8 dereferenceable(84) %14, i16 2, ptr noundef nonnull align 8 dereferenceable(8) %4)
  br label %"_ZZN4pkpy12add_module_cEPNS_2VMEENK4$_80clES1_NS_8ArgsViewE.exit"

"_ZZN4pkpy12add_module_cEPNS_2VMEENK4$_80clES1_NS_8ArgsViewE.exit": ; preds = %9, %13
  %.0.i.i = phi ptr [ %12, %9 ], [ %15, %13 ]
  call void @llvm.lifetime.end.p0(i64 8, ptr nonnull %4)
  ret ptr %.0.i.i
}